target datalayout = "e-m:e-p270:32:32-p271:32:32-p272:64:64-i64:64-i128:128-f80:128-n8:16:32:64-S128"
target triple = "x86_64-pc-linux-gnu"

%class.b3FillCL = type { ptr, ptr, ptr, ptr, ptr, ptr }

@_ZTV8b3FillCL = dso_local unnamed_addr constant { [4 x ptr] } { [4 x ptr] [ptr null, ptr @_ZTI8b3FillCL, ptr @_ZN8b3FillCLD1Ev, ptr @_ZN8b3FillCLD0Ev] }, align 8
@_ZL13fillKernelsCL = internal global ptr @.str.10, align 8
@.str = private unnamed_addr constant [1 x i8] zeroinitializer, align 1
@.str.1 = private unnamed_addr constant [60 x i8] c"src/Bullet3OpenCL/ParallelPrimitives/kernels/FillKernels.cl\00", align 1
@.str.2 = private unnamed_addr constant [14 x i8] c"FillIntKernel\00", align 1
@.str.3 = private unnamed_addr constant [22 x i8] c"FillUnsignedIntKernel\00", align 1
@.str.4 = private unnamed_addr constant [16 x i8] c"FillFloatKernel\00", align 1
@.str.5 = private unnamed_addr constant [15 x i8] c"FillInt2Kernel\00", align 1

; Function Attrs: inlinehint mustprogress uwtable
define linkonce_odr dso_local noundef ptr @_ZN13b3OpenCLUtils25compileCLKernelFromStringEP11_cl_contextP13_cl_device_idPKcS5_PiP11_cl_programS5_(ptr noundef %0, ptr noundef %1, ptr noundef %2, ptr noundef %3, ptr noundef %4, ptr noundef %5, ptr noundef %6) #2 comdat align 2 {
  %8 = alloca ptr, align 8
  %9 = alloca ptr, align 8
  %10 = alloca ptr, align 8
  %11 = alloca ptr, align 8
  %12 = alloca ptr, align 8
  %13 = alloca ptr, align 8
  %14 = alloca ptr, align 8
  store ptr %0, ptr %8, align 8, !tbaa !9
  store ptr %1, ptr %9, align 8, !tbaa !11
  store ptr %2, ptr %10, align 8, !tbaa !20
  store ptr %3, ptr %11, align 8, !tbaa !20
  store ptr %4, ptr %12, align 8, !tbaa !28
  store ptr %5, ptr %13, align 8, !tbaa !22
  store ptr %6, ptr %14, align 8, !tbaa !20
  %15 = load ptr, ptr %8, align 8, !tbaa !9
  %16 = load ptr, ptr %9, align 8, !tbaa !11
  %17 = load ptr, ptr %10, align 8, !tbaa !20
  %18 = load ptr, ptr %11, align 8, !tbaa !20
  %19 = load ptr, ptr %12, align 8, !tbaa !28
  %20 = load ptr, ptr %13, align 8, !tbaa !22
  %21 = load ptr, ptr %14, align 8, !tbaa !20
  %22 = call ptr @b3OpenCLUtils_compileCLKernelFromString(ptr noundef %15, ptr noundef %16, ptr noundef %17, ptr noundef %18, ptr noundef %19, ptr noundef %20, ptr noundef %21)
  ret ptr %22
}

; Function Attrs: inlinehint mustprogress uwtable
define linkonce_odr dso_local noundef ptr @_ZN13b3OpenCLUtils26compileCLProgramFromStringEP11_cl_contextP13_cl_device_idPKcPiS5_S5_b(ptr noundef %0, ptr noundef %1, ptr noundef %2, ptr noundef %3, ptr noundef %4, ptr noundef %5, i1 noundef zeroext %6) #2 comdat align 2 {
  %8 = alloca ptr, align 8
  %9 = alloca ptr, align 8
  %10 = alloca ptr, align 8
  %11 = alloca ptr, align 8
  %12 = alloca ptr, align 8
  %13 = alloca ptr, align 8
  %14 = alloca i8, align 1
  store ptr %0, ptr %8, align 8, !tbaa !9
  store ptr %1, ptr %9, align 8, !tbaa !11
  store ptr %2, ptr %10, align 8, !tbaa !20
  store ptr %3, ptr %11, align 8, !tbaa !28
  store ptr %4, ptr %12, align 8, !tbaa !20
  store ptr %5, ptr %13, align 8, !tbaa !20
  %15 = zext i1 %6 to i8
  store i8 %15, ptr %14, align 1, !tbaa !30
  %16 = load ptr, ptr %8, align 8, !tbaa !9
  %17 = load ptr, ptr %9, align 8, !tbaa !11
  %18 = load ptr, ptr %10, align 8, !tbaa !20
  %19 = load ptr, ptr %11, align 8, !tbaa !28
  %20 = load ptr, ptr %12, align 8, !tbaa !20
  %21 = load ptr, ptr %13, align 8, !tbaa !20
  %22 = load i8, ptr %14, align 1, !tbaa !30, !range !32, !noundef !33
  %23 = trunc i8 %22 to i1
  %24 = call ptr @b3OpenCLUtils_compileCLProgramFromString(ptr noundef %16, ptr noundef %17, ptr noundef %18, ptr noundef %19, ptr noundef %20, ptr noundef %21, i1 noundef zeroext %23)
  ret ptr %24
}

; Function Attrs: mustprogress uwtable
define dso_local void @_ZN8b3FillCLC2EP11_cl_contextP13_cl_device_idP17_cl_command_queue(ptr noundef nonnull align 8 dereferenceable(48) %0, ptr noundef %1, ptr noundef %2, ptr noundef %3) unnamed_addr #0 align 2 {
  %5 = alloca ptr, align 8
  %6 = alloca ptr, align 8
  %7 = alloca ptr, align 8
  %8 = alloca ptr, align 8
  %9 = alloca ptr, align 8
  %10 = alloca i32, align 4
  %11 = alloca ptr, align 8
  %12 = alloca ptr, align 8
  store ptr %0, ptr %5, align 8, !tbaa !4
  store ptr %1, ptr %6, align 8, !tbaa !9
  store ptr %2, ptr %7, align 8, !tbaa !11
  store ptr %3, ptr %8, align 8, !tbaa !13
  %13 = load ptr, ptr %5, align 8
  store ptr getelementptr inbounds inrange(-16, 16) ({ [4 x ptr] }, ptr @_ZTV8b3FillCL, i32 0, i32 0, i32 2), ptr %13, align 8, !tbaa !15
  %14 = getelementptr inbounds nuw %class.b3FillCL, ptr %13, i32 0, i32 1
  %15 = load ptr, ptr %8, align 8, !tbaa !13
  store ptr %15, ptr %14, align 8, !tbaa !17
  call void @llvm.lifetime.start.p0(i64 8, ptr %9) #10
  %16 = load ptr, ptr @_ZL13fillKernelsCL, align 8, !tbaa !20
  store ptr %16, ptr %9, align 8, !tbaa !20
  call void @llvm.lifetime.start.p0(i64 4, ptr %10) #10
  call void @llvm.lifetime.start.p0(i64 8, ptr %11) #10
  store ptr @.str, ptr %11, align 8, !tbaa !20
  call void @llvm.lifetime.start.p0(i64 8, ptr %12) #10
  %17 = load ptr, ptr %6, align 8, !tbaa !9
  %18 = load ptr, ptr %7, align 8, !tbaa !11
  %19 = load ptr, ptr %9, align 8, !tbaa !20
  %20 = load ptr, ptr %11, align 8, !tbaa !20
  %21 = call noundef ptr @_ZN13b3OpenCLUtils26compileCLProgramFromStringEP11_cl_contextP13_cl_device_idPKcPiS5_S5_b(ptr noundef %17, ptr noundef %18, ptr noundef %19, ptr noundef %10, ptr noundef %20, ptr noundef @.str.1, i1 noundef zeroext false)
  store ptr %21, ptr %12, align 8, !tbaa !22
  %22 = load ptr, ptr %6, align 8, !tbaa !9
  %23 = load ptr, ptr %7, align 8, !tbaa !11
  %24 = load ptr, ptr %9, align 8, !tbaa !20
  %25 = load ptr, ptr %12, align 8, !tbaa !22
  %26 = load ptr, ptr %11, align 8, !tbaa !20
  %27 = call noundef ptr @_ZN13b3OpenCLUtils25compileCLKernelFromStringEP11_cl_contextP13_cl_device_idPKcS5_PiP11_cl_programS5_(ptr noundef %22, ptr noundef %23, ptr noundef %24, ptr noundef @.str.2, ptr noundef %10, ptr noundef %25, ptr noundef %26)
  %28 = getelementptr inbounds nuw %class.b3FillCL, ptr %13, i32 0, i32 3
  store ptr %27, ptr %28, align 8, !tbaa !24
  %29 = load ptr, ptr %6, align 8, !tbaa !9
  %30 = load ptr, ptr %7, align 8, !tbaa !11
  %31 = load ptr, ptr %9, align 8, !tbaa !20
  %32 = load ptr, ptr %12, align 8, !tbaa !22
  %33 = load ptr, ptr %11, align 8, !tbaa !20
  %34 = call noundef ptr @_ZN13b3OpenCLUtils25compileCLKernelFromStringEP11_cl_contextP13_cl_device_idPKcS5_PiP11_cl_programS5_(ptr noundef %29, ptr noundef %30, ptr noundef %31, ptr noundef @.str.3, ptr noundef %10, ptr noundef %32, ptr noundef %33)
  %35 = getelementptr inbounds nuw %class.b3FillCL, ptr %13, i32 0, i32 4
  store ptr %34, ptr %35, align 8, !tbaa !25
  %36 = load ptr, ptr %6, align 8, !tbaa !9
  %37 = load ptr, ptr %7, align 8, !tbaa !11
  %38 = load ptr, ptr %9, align 8, !tbaa !20
  %39 = load ptr, ptr %12, align 8, !tbaa !22
  %40 = load ptr, ptr %11, align 8, !tbaa !20
  %41 = call noundef ptr @_ZN13b3OpenCLUtils25compileCLKernelFromStringEP11_cl_contextP13_cl_device_idPKcS5_PiP11_cl_programS5_(ptr noundef %36, ptr noundef %37, ptr noundef %38, ptr noundef @.str.4, ptr noundef %10, ptr noundef %39, ptr noundef %40)
  %42 = getelementptr inbounds nuw %class.b3FillCL, ptr %13, i32 0, i32 5
  store ptr %41, ptr %42, align 8, !tbaa !26
  %43 = load ptr, ptr %6, align 8, !tbaa !9
  %44 = load ptr, ptr %7, align 8, !tbaa !11
  %45 = load ptr, ptr %9, align 8, !tbaa !20
  %46 = load ptr, ptr %12, align 8, !tbaa !22
  %47 = load ptr, ptr %11, align 8, !tbaa !20
  %48 = call noundef ptr @_ZN13b3OpenCLUtils25compileCLKernelFromStringEP11_cl_contextP13_cl_device_idPKcS5_PiP11_cl_programS5_(ptr noundef %43, ptr noundef %44, ptr noundef %45, ptr noundef @.str.5, ptr noundef %10, ptr noundef %46, ptr noundef %47)
  %49 = getelementptr inbounds nuw %class.b3FillCL, ptr %13, i32 0, i32 2
  store ptr %48, ptr %49, align 8, !tbaa !27
  call void @llvm.lifetime.end.p0(i64 8, ptr %12) #10
  call void @llvm.lifetime.end.p0(i64 8, ptr %11) #10
  call void @llvm.lifetime.end.p0(i64 4, ptr %10) #10
  call void @llvm.lifetime.end.p0(i64 8, ptr %9) #10
  ret void
}