; Function Attrs: mustprogress uwtable
define dso_local void @_ZN8b3FillCLC2EP11_cl_contextP13_cl_device_idP17_cl_command_queue(ptr noundef nonnull writeonly align 8 captures(none) dereferenceable(48) initializes((0, 48)) %0, ptr noundef %1, ptr noundef %2, ptr noundef %3) unnamed_addr #0 align 2 {
  %5 = alloca i32, align 4
  store ptr getelementptr inbounds nuw inrange(-16, 16) (i8, ptr @_ZTV8b3FillCL, i64 16), ptr %0, align 8, !tbaa !4
  %6 = getelementptr inbounds nuw i8, ptr %0, i64 8
  store ptr %3, ptr %6, align 8, !tbaa !7
  call void @llvm.lifetime.start.p0(i64 4, ptr nonnull %5) #12
  %7 = call noundef ptr @b3OpenCLUtils_compileCLProgramFromString(ptr noundef %1, ptr noundef %2, ptr noundef nonnull @.str.10, ptr noundef nonnull %5, ptr noundef nonnull @.str, ptr noundef nonnull @.str.1, i1 noundef zeroext false)
  %8 = call noundef ptr @b3OpenCLUtils_compileCLKernelFromString(ptr noundef %1, ptr noundef %2, ptr noundef nonnull @.str.10, ptr noundef nonnull @.str.2, ptr noundef nonnull %5, ptr noundef %7, ptr noundef nonnull @.str)
  %9 = getelementptr inbounds nuw i8, ptr %0, i64 24
  store ptr %8, ptr %9, align 8, !tbaa !13
  %10 = call noundef ptr @b3OpenCLUtils_compileCLKernelFromString(ptr noundef %1, ptr noundef %2, ptr noundef nonnull @.str.10, ptr noundef nonnull @.str.3, ptr noundef nonnull %5, ptr noundef %7, ptr noundef nonnull @.str)
  %11 = getelementptr inbounds nuw i8, ptr %0, i64 32
  store ptr %10, ptr %11, align 8, !tbaa !14
  %12 = call noundef ptr @b3OpenCLUtils_compileCLKernelFromString(ptr noundef %1, ptr noundef %2, ptr noundef nonnull @.str.10, ptr noundef nonnull @.str.4, ptr noundef nonnull %5, ptr noundef %7, ptr noundef nonnull @.str)
  %13 = getelementptr inbounds nuw i8, ptr %0, i64 40
  store ptr %12, ptr %13, align 8, !tbaa !15
  %14 = call noundef ptr @b3OpenCLUtils_compileCLKernelFromString(ptr noundef %1, ptr noundef %2, ptr noundef nonnull @.str.10, ptr noundef nonnull @.str.5, ptr noundef nonnull %5, ptr noundef %7, ptr noundef nonnull @.str)
  %15 = getelementptr inbounds nuw i8, ptr %0, i64 16
  store ptr %14, ptr %15, align 8, !tbaa !16
  call void @llvm.lifetime.end.p0(i64 4, ptr nonnull %5) #12
  ret void
}